; ModuleID = '20/134.c'
source_filename = "20/134.c"
target datalayout = "e-m:e-p270:32:32-p271:32:32-p272:64:64-i64:64-f80:128-n8:16:32:64-S128"
target triple = "x86_64-pc-linux-gnu"

@.str = private unnamed_addr constant [6 x i8] c"%s %s\00", align 1
@.str.1 = private unnamed_addr constant [3 x i8] c"%c\00", align 1
@.str.2 = private unnamed_addr constant [3 x i8] c"%s\00", align 1
@.str.3 = private unnamed_addr constant [2 x i8] c"\0A\00", align 1

; Function Attrs: noinline nounwind uwtable
define dso_local void @main() #0 {
  %1 = alloca i32, align 4
  %2 = alloca i32, align 4
  %3 = alloca [11 x i8], align 1
  %4 = alloca [3 x i8], align 1
  %5 = alloca [11 x i8], align 1
  %6 = alloca i8*, align 8
  store i32 0, i32* %1, align 4
  store i32 0, i32* %2, align 4
  %7 = bitcast [11 x i8]* %3 to i8*
  call void @llvm.memset.p0i8.i64(i8* align 1 %7, i8 0, i64 11, i1 false)
  %8 = bitcast [3 x i8]* %4 to i8*
  call void @llvm.memset.p0i8.i64(i8* align 1 %8, i8 0, i64 3, i1 false)
  %9 = bitcast [11 x i8]* %5 to i8*
  call void @llvm.memset.p0i8.i64(i8* align 1 %9, i8 0, i64 11, i1 false)
  br label %10

10:                                               ; preds = %71, %0
  %11 = getelementptr inbounds [11 x i8], [11 x i8]* %3, i64 0, i64 0
  %12 = getelementptr inbounds [3 x i8], [3 x i8]* %4, i64 0, i64 0
  %13 = call i32 (i8*, ...) @__isoc99_scanf(i8* getelementptr inbounds ([6 x i8], [6 x i8]* @.str, i64 0, i64 0), i8* %11, i8* %12)
  %14 = getelementptr inbounds [11 x i8], [11 x i8]* %5, i64 0, i64 0
  %15 = getelementptr inbounds [11 x i8], [11 x i8]* %3, i64 0, i64 0
  %16 = call i32 @strcmp(i8* %14, i8* %15) #5
  %17 = icmp eq i32 %16, 0
  br i1 %17, label %18, label %19

18:                                               ; preds = %10
  br label %76

19:                                               ; preds = %10
  %20 = getelementptr inbounds [11 x i8], [11 x i8]* %3, i64 0, i64 0
  %21 = call i64 @strlen(i8* %20) #5
  %22 = trunc i64 %21 to i32
  store i32 %22, i32* %1, align 4
  %23 = getelementptr inbounds [11 x i8], [11 x i8]* %3, i64 0, i64 0
  store i8* %23, i8** %6, align 8
  store i32 0, i32* %2, align 4
  br label %24

24:                                               ; preds = %44, %19
  %25 = load i32, i32* %2, align 4
  %26 = load i32, i32* %1, align 4
  %27 = icmp slt i32 %25, %26
  br i1 %27, label %28, label %47

28:                                               ; preds = %24
  %29 = load i8*, i8** %6, align 8
  %30 = load i8, i8* %29, align 1
  %31 = sext i8 %30 to i32
  %32 = load i32, i32* %2, align 4
  %33 = sext i32 %32 to i64
  %34 = getelementptr inbounds [11 x i8], [11 x i8]* %3, i64 0, i64 %33
  %35 = load i8, i8* %34, align 1
  %36 = sext i8 %35 to i32
  %37 = icmp slt i32 %31, %36
  br i1 %37, label %38, label %42

38:                                               ; preds = %28
  %39 = load i32, i32* %2, align 4
  %40 = sext i32 %39 to i64
  %41 = getelementptr inbounds [11 x i8], [11 x i8]* %3, i64 0, i64 %40
  store i8* %41, i8** %6, align 8
  br label %43

42:                                               ; preds = %28
  br label %43

43:                                               ; preds = %42, %38
  br label %44

44:                                               ; preds = %43
  %45 = load i32, i32* %2, align 4
  %46 = add nsw i32 %45, 1
  store i32 %46, i32* %2, align 4
  br label %24

47:                                               ; preds = %24
  store i32 0, i32* %2, align 4
  br label %48

48:                                               ; preds = %68, %47
  %49 = load i32, i32* %2, align 4
  %50 = load i32, i32* %1, align 4
  %51 = icmp slt i32 %49, %50
  br i1 %51, label %52, label %71

52:                                               ; preds = %48
  %53 = load i32, i32* %2, align 4
  %54 = sext i32 %53 to i64
  %55 = getelementptr inbounds [11 x i8], [11 x i8]* %3, i64 0, i64 %54
  %56 = load i8, i8* %55, align 1
  %57 = sext i8 %56 to i32
  %58 = call i32 (i8*, ...) @printf(i8* getelementptr inbounds ([3 x i8], [3 x i8]* @.str.1, i64 0, i64 0), i32 %57)
  %59 = load i32, i32* %2, align 4
  %60 = sext i32 %59 to i64
  %61 = getelementptr inbounds [11 x i8], [11 x i8]* %3, i64 0, i64 %60
  %62 = load i8*, i8** %6, align 8
  %63 = icmp eq i8* %61, %62
  br i1 %63, label %64, label %67

64:                                               ; preds = %52
  %65 = getelementptr inbounds [3 x i8], [3 x i8]* %4, i64 0, i64 0
  %66 = call i32 (i8*, ...) @printf(i8* getelementptr inbounds ([3 x i8], [3 x i8]* @.str.2, i64 0, i64 0), i8* %65)
  br label %67

67:                                               ; preds = %64, %52
  br label %68

68:                                               ; preds = %67
  %69 = load i32, i32* %2, align 4
  %70 = add nsw i32 %69, 1
  store i32 %70, i32* %2, align 4
  br label %48

71:                                               ; preds = %48
  %72 = call i32 (i8*, ...) @printf(i8* getelementptr inbounds ([2 x i8], [2 x i8]* @.str.3, i64 0, i64 0))
  %73 = getelementptr inbounds [11 x i8], [11 x i8]* %5, i64 0, i64 0
  %74 = getelementptr inbounds [11 x i8], [11 x i8]* %3, i64 0, i64 0
  %75 = call i8* @strcpy(i8* %73, i8* %74) #6
  br label %10

76:                                               ; preds = %18
  ret void
}

; Function Attrs: argmemonly nounwind willreturn
declare void @llvm.memset.p0i8.i64(i8* nocapture writeonly, i8, i64, i1 immarg) #1

declare dso_local i32 @__isoc99_scanf(i8*, ...) #2

; Function Attrs: nounwind readonly
declare dso_local i32 @strcmp(i8*, i8*) #3

; Function Attrs: nounwind readonly
declare dso_local i64 @strlen(i8*) #3

declare dso_local i32 @printf(i8*, ...) #2

; Function Attrs: nounwind
declare dso_local i8* @strcpy(i8*, i8*) #4


!llvm.module.flags = !{!0}
!llvm.ident = !{!1}

!0 = !{i32 1, !"wchar_size", i32 4}
!1 = !{!"clang version 10.0.0-4ubuntu1 "}
